target datalayout = "e-m:e-p270:32:32-p271:32:32-p272:64:64-i64:64-i128:128-f80:128-n8:16:32:64-S128"
target triple = "x86_64-pc-linux-gnu"

%struct.JSMallocState = type { i64, i64, i64, ptr }

@.str.30 = private unnamed_addr constant [13 x i8] c"A %zd -> %p\0A\00", align 1
@.str.35 = private unnamed_addr constant [10 x i8] c"R %zd %p\0A\00", align 1
@.str.36 = private unnamed_addr constant [9 x i8] c"R %zd %p\00", align 1
@.str.37 = private unnamed_addr constant [8 x i8] c" -> %p\0A\00", align 1

; Function Attrs: nounwind uwtable
define internal i64 @js_trace_malloc_usable_size(ptr noundef %0) #0 {
  %2 = alloca ptr, align 8
  store ptr %0, ptr %2, align 8
  %3 = load ptr, ptr %2, align 8
  %4 = call i64 @malloc_usable_size(ptr noundef %3) #12
  ret i64 %4
}

; Function Attrs: nounwind uwtable
define internal ptr @js_trace_malloc(ptr noundef %0, i64 noundef %1) #0 {
  %3 = alloca ptr, align 8
  %4 = alloca ptr, align 8
  %5 = alloca i64, align 8
  %6 = alloca ptr, align 8
  store ptr %0, ptr %4, align 8
  store i64 %1, ptr %5, align 8
  %7 = load ptr, ptr %4, align 8
  %8 = getelementptr inbounds %struct.JSMallocState, ptr %7, i32 0, i32 1
  %9 = load i64, ptr %8, align 8
  %10 = load i64, ptr %5, align 8
  %11 = add i64 %9, %10
  %12 = load ptr, ptr %4, align 8
  %13 = getelementptr inbounds %struct.JSMallocState, ptr %12, i32 0, i32 2
  %14 = load i64, ptr %13, align 8
  %15 = icmp ugt i64 %11, %14
  %16 = xor i1 %15, true
  %17 = xor i1 %16, true
  %18 = zext i1 %17 to i32
  %19 = sext i32 %18 to i64
  %20 = icmp ne i64 %19, 0
  br i1 %20, label %21, label %22

21:                                               ; preds = %2
  store ptr null, ptr %3, align 8
  br label %44

22:                                               ; preds = %2
  %23 = load i64, ptr %5, align 8
  %24 = call noalias ptr @malloc(i64 noundef %23) #13
  store ptr %24, ptr %6, align 8
  %25 = load ptr, ptr %4, align 8
  %26 = load i64, ptr %5, align 8
  %27 = load ptr, ptr %6, align 8
  call void (ptr, ptr, ...) @js_trace_malloc_printf(ptr noundef %25, ptr noundef @.str.30, i64 noundef %26, ptr noundef %27)
  %28 = load ptr, ptr %6, align 8
  %29 = icmp ne ptr %28, null
  br i1 %29, label %30, label %42

30:                                               ; preds = %22
  %31 = load ptr, ptr %4, align 8
  %32 = getelementptr inbounds %struct.JSMallocState, ptr %31, i32 0, i32 0
  %33 = load i64, ptr %32, align 8
  %34 = add i64 %33, 1
  store i64 %34, ptr %32, align 8
  %35 = load ptr, ptr %6, align 8
  %36 = call i64 @js_trace_malloc_usable_size(ptr noundef %35)
  %37 = add i64 %36, 8
  %38 = load ptr, ptr %4, align 8
  %39 = getelementptr inbounds %struct.JSMallocState, ptr %38, i32 0, i32 1
  %40 = load i64, ptr %39, align 8
  %41 = add i64 %40, %37
  store i64 %41, ptr %39, align 8
  br label %42

42:                                               ; preds = %30, %22
  %43 = load ptr, ptr %6, align 8
  store ptr %43, ptr %3, align 8
  br label %44

44:                                               ; preds = %42, %21
  %45 = load ptr, ptr %3, align 8
  ret ptr %45
}

; Function Attrs: nounwind uwtable
define internal ptr @js_trace_realloc(ptr noundef %0, ptr noundef %1, i64 noundef %2) #0 {
  %4 = alloca ptr, align 8
  %5 = alloca ptr, align 8
  %6 = alloca ptr, align 8
  %7 = alloca i64, align 8
  %8 = alloca i64, align 8
  store ptr %0, ptr %5, align 8
  store ptr %1, ptr %6, align 8
  store i64 %2, ptr %7, align 8
  %9 = load ptr, ptr %6, align 8
  %10 = icmp ne ptr %9, null
  br i1 %10, label %19, label %11

11:                                               ; preds = %3
  %12 = load i64, ptr %7, align 8
  %13 = icmp eq i64 %12, 0
  br i1 %13, label %14, label %15

14:                                               ; preds = %11
  store ptr null, ptr %4, align 8
  br label %74

15:                                               ; preds = %11
  %16 = load ptr, ptr %5, align 8
  %17 = load i64, ptr %7, align 8
  %18 = call ptr @js_trace_malloc(ptr noundef %16, i64 noundef %17)
  store ptr %18, ptr %4, align 8
  br label %74

19:                                               ; preds = %3
  %20 = load ptr, ptr %6, align 8
  %21 = call i64 @js_trace_malloc_usable_size(ptr noundef %20)
  store i64 %21, ptr %8, align 8
  %22 = load i64, ptr %7, align 8
  %23 = icmp eq i64 %22, 0
  br i1 %23, label %24, label %39

24:                                               ; preds = %19
  %25 = load ptr, ptr %5, align 8
  %26 = load i64, ptr %7, align 8
  %27 = load ptr, ptr %6, align 8
  call void (ptr, ptr, ...) @js_trace_malloc_printf(ptr noundef %25, ptr noundef @.str.35, i64 noundef %26, ptr noundef %27)
  %28 = load ptr, ptr %5, align 8
  %29 = getelementptr inbounds %struct.JSMallocState, ptr %28, i32 0, i32 0
  %30 = load i64, ptr %29, align 8
  %31 = add i64 %30, -1
  store i64 %31, ptr %29, align 8
  %32 = load i64, ptr %8, align 8
  %33 = add i64 %32, 8
  %34 = load ptr, ptr %5, align 8
  %35 = getelementptr inbounds %struct.JSMallocState, ptr %34, i32 0, i32 1
  %36 = load i64, ptr %35, align 8
  %37 = sub i64 %36, %33
  store i64 %37, ptr %35, align 8
  %38 = load ptr, ptr %6, align 8
  call void @free(ptr noundef %38) #12
  store ptr null, ptr %4, align 8
  br label %74

39:                                               ; preds = %19
  %40 = load ptr, ptr %5, align 8
  %41 = getelementptr inbounds %struct.JSMallocState, ptr %40, i32 0, i32 1
  %42 = load i64, ptr %41, align 8
  %43 = load i64, ptr %7, align 8
  %44 = add i64 %42, %43
  %45 = load i64, ptr %8, align 8
  %46 = sub i64 %44, %45
  %47 = load ptr, ptr %5, align 8
  %48 = getelementptr inbounds %struct.JSMallocState, ptr %47, i32 0, i32 2
  %49 = load i64, ptr %48, align 8
  %50 = icmp ugt i64 %46, %49
  br i1 %50, label %51, label %52

51:                                               ; preds = %39
  store ptr null, ptr %4, align 8
  br label %74

52:                                               ; preds = %39
  %53 = load ptr, ptr %5, align 8
  %54 = load i64, ptr %7, align 8
  %55 = load ptr, ptr %6, align 8
  call void (ptr, ptr, ...) @js_trace_malloc_printf(ptr noundef %53, ptr noundef @.str.36, i64 noundef %54, ptr noundef %55)
  %56 = load ptr, ptr %6, align 8
  %57 = load i64, ptr %7, align 8
  %58 = call ptr @realloc(ptr noundef %56, i64 noundef %57) #14
  store ptr %58, ptr %6, align 8
  %59 = load ptr, ptr %5, align 8
  %60 = load ptr, ptr %6, align 8
  call void (ptr, ptr, ...) @js_trace_malloc_printf(ptr noundef %59, ptr noundef @.str.37, ptr noundef %60)
  %61 = load ptr, ptr %6, align 8
  %62 = icmp ne ptr %61, null
  br i1 %62, label %63, label %72

63:                                               ; preds = %52
  %64 = load ptr, ptr %6, align 8
  %65 = call i64 @js_trace_malloc_usable_size(ptr noundef %64)
  %66 = load i64, ptr %8, align 8
  %67 = sub i64 %65, %66
  %68 = load ptr, ptr %5, align 8
  %69 = getelementptr inbounds %struct.JSMallocState, ptr %68, i32 0, i32 1
  %70 = load i64, ptr %69, align 8
  %71 = add i64 %70, %67
  store i64 %71, ptr %69, align 8
  br label %72

72:                                               ; preds = %63, %52
  %73 = load ptr, ptr %6, align 8
  store ptr %73, ptr %4, align 8
  br label %74

74:                                               ; preds = %72, %51, %24, %15, %14
  %75 = load ptr, ptr %4, align 8
  ret ptr %75
}