; Function Attrs: nounwind uwtable
define internal noundef ptr @js_trace_realloc(ptr nocapture noundef %0, ptr noundef %1, i64 noundef %2) #3 {
  %.not = icmp eq ptr %1, null
  br i1 %.not, label %4, label %22

4:                                                ; preds = %3
  %5 = icmp eq i64 %2, 0
  br i1 %5, label %js_trace_malloc.exit, label %6

6:                                                ; preds = %4
  %7 = getelementptr inbounds i8, ptr %0, i64 8
  %8 = load i64, ptr %7, align 8
  %9 = add i64 %8, %2
  %10 = getelementptr inbounds i8, ptr %0, i64 16
  %11 = load i64, ptr %10, align 8
  %12 = icmp ugt i64 %9, %11
  br i1 %12, label %js_trace_malloc.exit, label %13

13:                                               ; preds = %6
  %14 = tail call noalias ptr @malloc(i64 noundef %2) #18
  tail call void (ptr, ptr, ...) @js_trace_malloc_printf(ptr noundef nonnull %0, ptr noundef nonnull @.str.30, i64 noundef %2, ptr noundef %14)
  %.not.i = icmp eq ptr %14, null
  br i1 %.not.i, label %js_trace_malloc.exit, label %15

15:                                               ; preds = %13
  %16 = load i64, ptr %0, align 8
  %17 = add i64 %16, 1
  store i64 %17, ptr %0, align 8
  %18 = tail call i64 @malloc_usable_size(ptr noundef nonnull %14) #16
  %19 = add i64 %18, 8
  %20 = load i64, ptr %7, align 8
  %21 = add i64 %19, %20
  store i64 %21, ptr %7, align 8
  br label %js_trace_malloc.exit

22:                                               ; preds = %3
  %23 = tail call i64 @malloc_usable_size(ptr noundef nonnull %1) #16
  %24 = icmp eq i64 %2, 0
  br i1 %24, label %25, label %31

25:                                               ; preds = %22
  tail call void (ptr, ptr, ...) @js_trace_malloc_printf(ptr noundef %0, ptr noundef nonnull @.str.35, i64 noundef 0, ptr noundef nonnull %1)
  %26 = load i64, ptr %0, align 8
  %27 = add i64 %26, -1
  store i64 %27, ptr %0, align 8
  %28 = getelementptr inbounds i8, ptr %0, i64 8
  %29 = load i64, ptr %28, align 8
  %reass.sub = sub i64 %29, %23
  %30 = add i64 %reass.sub, -8
  store i64 %30, ptr %28, align 8
  tail call void @free(ptr noundef nonnull %1) #16
  br label %js_trace_malloc.exit

31:                                               ; preds = %22
  %32 = getelementptr inbounds i8, ptr %0, i64 8
  %33 = load i64, ptr %32, align 8
  %34 = sub i64 %2, %23
  %35 = add i64 %34, %33
  %36 = getelementptr inbounds i8, ptr %0, i64 16
  %37 = load i64, ptr %36, align 8
  %38 = icmp ugt i64 %35, %37
  br i1 %38, label %js_trace_malloc.exit, label %39

39:                                               ; preds = %31
  tail call void (ptr, ptr, ...) @js_trace_malloc_printf(ptr noundef nonnull %0, ptr noundef nonnull @.str.36, i64 noundef %2, ptr noundef nonnull %1)
  %40 = tail call ptr @realloc(ptr noundef nonnull %1, i64 noundef %2) #19
  tail call void (ptr, ptr, ...) @js_trace_malloc_printf(ptr noundef nonnull %0, ptr noundef nonnull @.str.37, ptr noundef %40)
  %.not32 = icmp eq ptr %40, null
  br i1 %.not32, label %js_trace_malloc.exit, label %41

41:                                               ; preds = %39
  %42 = tail call i64 @malloc_usable_size(ptr noundef nonnull %40) #16
  %43 = sub i64 %42, %23
  %44 = load i64, ptr %32, align 8
  %45 = add i64 %43, %44
  store i64 %45, ptr %32, align 8
  br label %js_trace_malloc.exit

js_trace_malloc.exit:                             ; preds = %15, %13, %6, %39, %41, %31, %4, %25
  %.0 = phi ptr [ null, %25 ], [ null, %4 ], [ null, %31 ], [ %40, %41 ], [ null, %39 ], [ null, %6 ], [ %14, %15 ], [ null, %13 ]
  ret ptr %.0
}